; Function Attrs: mustprogress uwtable
define hidden void @_ZN7testing8internal17TestEventRepeater20OnTestIterationStartERKNS_8UnitTestEi(ptr noundef nonnull readonly align 8 captures(none) dereferenceable(40) %0, ptr noundef nonnull align 8 dereferenceable(24) %1, i32 noundef %2) unnamed_addr #3 align 2 {
  %4 = getelementptr inbounds nuw i8, ptr %0, i64 8
  %5 = load i8, ptr %4, align 8, !range !8, !noundef !9
  %6 = trunc nuw i8 %5 to i1
  br i1 %6, label %.preheader, label %.loopexit

.preheader:                                       ; preds = %3
  %7 = getelementptr inbounds nuw i8, ptr %0, i64 16
  %8 = getelementptr inbounds nuw i8, ptr %0, i64 24
  %9 = load ptr, ptr %8, align 8
  %10 = load ptr, ptr %7, align 8
  %.not = icmp eq ptr %9, %10
  br i1 %.not, label %.loopexit, label %.lr.ph

.lr.ph:                                           ; preds = %.preheader, %.lr.ph
  %11 = phi ptr [ %19, %.lr.ph ], [ %10, %.preheader ]
  %.05 = phi i64 [ %17, %.lr.ph ], [ 0, %.preheader ]
  %12 = getelementptr inbounds nuw ptr, ptr %11, i64 %.05
  %13 = load ptr, ptr %12, align 8
  %14 = load ptr, ptr %13, align 8
  %15 = getelementptr inbounds nuw i8, ptr %14, i64 24
  %16 = load ptr, ptr %15, align 8
  tail call void %16(ptr noundef nonnull align 8 dereferenceable(8) %13, ptr noundef nonnull align 8 dereferenceable(24) %1, i32 noundef %2)
  %17 = add nuw i64 %.05, 1
  %18 = load ptr, ptr %8, align 8
  %19 = load ptr, ptr %7, align 8
  %20 = ptrtoint ptr %18 to i64
  %21 = ptrtoint ptr %19 to i64
  %22 = sub i64 %20, %21
  %23 = ashr exact i64 %22, 3
  %24 = icmp ult i64 %17, %23
  br i1 %24, label %.lr.ph, label %.loopexit, !llvm.loop !312

.loopexit:                                        ; preds = %.lr.ph, %.preheader, %3
  ret void
}